target datalayout = "e-m:e-p270:32:32-p271:32:32-p272:64:64-i64:64-i128:128-f80:128-n8:16:32:64-S128"
target triple = "x86_64-pc-linux-gnu"

%union.__SOCKADDR_ARG = type { ptr }
%struct.ClientSocket = type { i32, %struct.SockAddr }
%struct.SockAddr = type { %struct.sockaddr_storage, i32 }
%struct.sockaddr_storage = type { i16, [118 x i8], i64 }

@.str.2 = private unnamed_addr constant [9 x i8] c"pqcomm.c\00", align 1
@.str.29 = private unnamed_addr constant [36 x i8] c"could not accept new connection: %m\00", align 1
@__func__.AcceptConnection = private unnamed_addr constant [17 x i8] c"AcceptConnection\00", align 1

; Function Attrs: nounwind uwtable
define dso_local i32 @AcceptConnection(i32 noundef %0, ptr noundef %1) #0 {
  %3 = alloca i32, align 4
  %4 = alloca i32, align 4
  %5 = alloca ptr, align 8
  %6 = alloca %union.__SOCKADDR_ARG, align 8
  store i32 %0, ptr %4, align 4
  store ptr %1, ptr %5, align 8
  %7 = load ptr, ptr %5, align 8
  %8 = getelementptr inbounds nuw %struct.ClientSocket, ptr %7, i32 0, i32 1
  %9 = getelementptr inbounds nuw %struct.SockAddr, ptr %8, i32 0, i32 1
  store i32 128, ptr %9, align 8
  %10 = load i32, ptr %4, align 4
  %11 = load ptr, ptr %5, align 8
  %12 = getelementptr inbounds nuw %struct.ClientSocket, ptr %11, i32 0, i32 1
  %13 = getelementptr inbounds nuw %struct.SockAddr, ptr %12, i32 0, i32 0
  store ptr %13, ptr %6, align 8
  %14 = load ptr, ptr %5, align 8
  %15 = getelementptr inbounds nuw %struct.ClientSocket, ptr %14, i32 0, i32 1
  %16 = getelementptr inbounds nuw %struct.SockAddr, ptr %15, i32 0, i32 1
  %17 = getelementptr inbounds nuw %union.__SOCKADDR_ARG, ptr %6, i32 0, i32 0
  %18 = load ptr, ptr %17, align 8
  %19 = call i32 @accept(i32 noundef %10, ptr %18, ptr noundef %16)
  %20 = load ptr, ptr %5, align 8
  %21 = getelementptr inbounds nuw %struct.ClientSocket, ptr %20, i32 0, i32 0
  store i32 %19, ptr %21, align 8
  %22 = icmp eq i32 %19, -1
  br i1 %22, label %23, label %34

23:                                               ; preds = %2
  br label %24

24:                                               ; preds = %23
  br i1 false, label %25, label %27

25:                                               ; preds = %24
  %26 = call zeroext i1 @errstart_cold(i32 noundef 15, ptr noundef null) #15
  br i1 %26, label %29, label %32

27:                                               ; preds = %24
  %28 = call zeroext i1 @errstart(i32 noundef 15, ptr noundef null)
  br i1 %28, label %29, label %32

29:                                               ; preds = %27, %25
  %30 = call i32 @errcode_for_socket_access()
  %31 = call i32 (ptr, ...) @errmsg(ptr noundef @.str.29)
  call void @errfinish(ptr noundef @.str.2, i32 noundef 804, ptr noundef @__func__.AcceptConnection)
  br label %32

32:                                               ; preds = %29, %27, %25
  br label %33

33:                                               ; preds = %32
  call void @pg_usleep(i64 noundef 100000)
  store i32 -1, ptr %3, align 4
  br label %35

34:                                               ; preds = %2
  store i32 0, ptr %3, align 4
  br label %35

35:                                               ; preds = %34, %33
  %36 = load i32, ptr %3, align 4
  ret i32 %36
}