; Function Attrs: nounwind uwtable
define dso_local range(i32 -1, 1) i32 @AcceptConnection(i32 noundef %0, ptr noundef initializes((136, 140)) %1) local_unnamed_addr #0 {
  %3 = getelementptr inbounds nuw i8, ptr %1, i64 8
  %4 = getelementptr inbounds nuw i8, ptr %1, i64 136
  store i32 128, ptr %4, align 8
  %5 = tail call i32 @accept(i32 noundef %0, ptr nonnull %3, ptr noundef nonnull %4) #21
  store i32 %5, ptr %1, align 8
  %6 = icmp eq i32 %5, -1
  br i1 %6, label %7, label %13

7:                                                ; preds = %2
  %8 = tail call zeroext i1 @errstart(i32 noundef 15, ptr noundef null) #21
  br i1 %8, label %9, label %12

9:                                                ; preds = %7
  %10 = tail call i32 @errcode_for_socket_access() #21
  %11 = tail call i32 (ptr, ...) @errmsg(ptr noundef nonnull @.str.29) #21
  tail call void @errfinish(ptr noundef nonnull @.str.2, i32 noundef 804, ptr noundef nonnull @__func__.AcceptConnection) #21
  br label %12

12:                                               ; preds = %7, %9
  tail call void @pg_usleep(i64 noundef 100000) #21
  br label %13

13:                                               ; preds = %2, %12
  %.0 = phi i32 [ -1, %12 ], [ 0, %2 ]
  ret i32 %.0
}